target datalayout = "e-m:e-p270:32:32-p271:32:32-p272:64:64-i64:64-i128:128-f80:128-n8:16:32:64-S128"
target triple = "x86_64-pc-linux-gnu"

; Function Attrs: mustprogress nounwind uwtable
define hidden void @_ZNK11mpn_manager8trace_nlEPKjj(ptr noundef nonnull align 1 dereferenceable(1) %0, ptr noundef %1, i32 noundef %2) #6 align 2 {
  %4 = alloca ptr, align 8
  %5 = alloca ptr, align 8
  %6 = alloca i32, align 4
  store ptr %0, ptr %4, align 8, !tbaa !3
  store ptr %1, ptr %5, align 8, !tbaa !8
  store i32 %2, ptr %6, align 4, !tbaa !10
  ret void
}

; Function Attrs: inlinehint mustprogress nounwind uwtable
define linkonce_odr noundef nonnull align 4 dereferenceable(4) ptr @_ZSt3maxIjERKT_S2_S2_(ptr noundef nonnull align 4 dereferenceable(4) %0, ptr noundef nonnull align 4 dereferenceable(4) %1) #7 comdat {
  %3 = alloca ptr, align 8
  %4 = alloca ptr, align 8
  %5 = alloca ptr, align 8
  store ptr %0, ptr %4, align 8, !tbaa !8
  store ptr %1, ptr %5, align 8, !tbaa !8
  %6 = load ptr, ptr %4, align 8, !tbaa !8
  %7 = load i32, ptr %6, align 4, !tbaa !10
  %8 = load ptr, ptr %5, align 8, !tbaa !8
  %9 = load i32, ptr %8, align 4, !tbaa !10
  %10 = icmp ult i32 %7, %9
  br i1 %10, label %11, label %13

11:                                               ; preds = %2
  %12 = load ptr, ptr %5, align 8, !tbaa !8
  store ptr %12, ptr %3, align 8
  br label %15

13:                                               ; preds = %2
  %14 = load ptr, ptr %4, align 8, !tbaa !8
  store ptr %14, ptr %3, align 8
  br label %15

15:                                               ; preds = %13, %11
  %16 = load ptr, ptr %3, align 8
  ret ptr %16
}

; Function Attrs: mustprogress nounwind uwtable
define hidden void @_ZNK11mpn_manager5traceEPKjj(ptr noundef nonnull align 1 dereferenceable(1) %0, ptr noundef %1, i32 noundef %2) #6 align 2 {
  %4 = alloca ptr, align 8
  %5 = alloca ptr, align 8
  %6 = alloca i32, align 4
  store ptr %0, ptr %4, align 8, !tbaa !3
  store ptr %1, ptr %5, align 8, !tbaa !8
  store i32 %2, ptr %6, align 4, !tbaa !10
  ret void
}

; Function Attrs: mustprogress uwtable
define hidden noundef i32 @_ZNK11mpn_manager7compareEPKjjS1_j(ptr noundef nonnull align 1 dereferenceable(1) %0, ptr noundef %1, i32 noundef %2, ptr noundef %3, i32 noundef %4) #4 align 2 {
  %6 = alloca ptr, align 8
  %7 = alloca ptr, align 8
  %8 = alloca i32, align 4
  %9 = alloca ptr, align 8
  %10 = alloca i32, align 4
  %11 = alloca i32, align 4
  %12 = alloca i32, align 4
  %13 = alloca i32, align 4
  %14 = alloca i32, align 4
  store ptr %0, ptr %6, align 8, !tbaa !3
  store ptr %1, ptr %7, align 8, !tbaa !8
  store i32 %2, ptr %8, align 4, !tbaa !10
  store ptr %3, ptr %9, align 8, !tbaa !8
  store i32 %4, ptr %10, align 4, !tbaa !10
  %15 = load ptr, ptr %6, align 8
  call void @llvm.lifetime.start.p0(i64 4, ptr %11) #3
  store i32 0, ptr %11, align 4, !tbaa !10
  %16 = load ptr, ptr %7, align 8, !tbaa !8
  %17 = load i32, ptr %8, align 4, !tbaa !10
  call void @_ZNK11mpn_manager5traceEPKjj(ptr noundef nonnull align 1 dereferenceable(1) %15, ptr noundef %16, i32 noundef %17)
  call void @llvm.lifetime.start.p0(i64 4, ptr %12) #3
  %18 = call noundef nonnull align 4 dereferenceable(4) ptr @_ZSt3maxIjERKT_S2_S2_(ptr noundef nonnull align 4 dereferenceable(4) %8, ptr noundef nonnull align 4 dereferenceable(4) %10)
  %19 = load i32, ptr %18, align 4, !tbaa !10
  store i32 %19, ptr %12, align 4, !tbaa !10
  br label %20

20:                                               ; preds = %64, %5
  %21 = load i32, ptr %12, align 4, !tbaa !10
  %22 = add i32 %21, -1
  store i32 %22, ptr %12, align 4, !tbaa !10
  %23 = icmp ugt i32 %21, 0
  br i1 %23, label %24, label %27

24:                                               ; preds = %20
  %25 = load i32, ptr %11, align 4, !tbaa !10
  %26 = icmp eq i32 %25, 0
  br label %27

27:                                               ; preds = %24, %20
  %28 = phi i1 [ false, %20 ], [ %26, %24 ]
  br i1 %28, label %29, label %65

29:                                               ; preds = %27
  call void @llvm.lifetime.start.p0(i64 4, ptr %13) #3
  %30 = load i32, ptr %12, align 4, !tbaa !10
  %31 = load i32, ptr %8, align 4, !tbaa !10
  %32 = icmp ult i32 %30, %31
  br i1 %32, label %33, label %39

33:                                               ; preds = %29
  %34 = load ptr, ptr %7, align 8, !tbaa !8
  %35 = load i32, ptr %12, align 4, !tbaa !10
  %36 = zext i32 %35 to i64
  %37 = getelementptr inbounds nuw i32, ptr %34, i64 %36
  %38 = load i32, ptr %37, align 4, !tbaa !10
  br label %40

39:                                               ; preds = %29
  br label %40

40:                                               ; preds = %39, %33
  %41 = phi i32 [ %38, %33 ], [ 0, %39 ]
  store i32 %41, ptr %13, align 4, !tbaa !10
  call void @llvm.lifetime.start.p0(i64 4, ptr %14) #3
  %42 = load i32, ptr %12, align 4, !tbaa !10
  %43 = load i32, ptr %10, align 4, !tbaa !10
  %44 = icmp ult i32 %42, %43
  br i1 %44, label %45, label %51

45:                                               ; preds = %40
  %46 = load ptr, ptr %9, align 8, !tbaa !8
  %47 = load i32, ptr %12, align 4, !tbaa !10
  %48 = zext i32 %47 to i64
  %49 = getelementptr inbounds nuw i32, ptr %46, i64 %48
  %50 = load i32, ptr %49, align 4, !tbaa !10
  br label %52

51:                                               ; preds = %40
  br label %52

52:                                               ; preds = %51, %45
  %53 = phi i32 [ %50, %45 ], [ 0, %51 ]
  store i32 %53, ptr %14, align 4, !tbaa !10
  %54 = load i32, ptr %13, align 4, !tbaa !10
  %55 = load i32, ptr %14, align 4, !tbaa !10
  %56 = icmp ugt i32 %54, %55
  br i1 %56, label %57, label %58

57:                                               ; preds = %52
  store i32 1, ptr %11, align 4, !tbaa !10
  br label %64

58:                                               ; preds = %52
  %59 = load i32, ptr %13, align 4, !tbaa !10
  %60 = load i32, ptr %14, align 4, !tbaa !10
  %61 = icmp ult i32 %59, %60
  br i1 %61, label %62, label %63

62:                                               ; preds = %58
  store i32 -1, ptr %11, align 4, !tbaa !10
  br label %63

63:                                               ; preds = %62, %58
  br label %64

64:                                               ; preds = %63, %57
  call void @llvm.lifetime.end.p0(i64 4, ptr %14) #3
  call void @llvm.lifetime.end.p0(i64 4, ptr %13) #3
  br label %20, !llvm.loop !12

65:                                               ; preds = %27
  %66 = load ptr, ptr %9, align 8, !tbaa !8
  %67 = load i32, ptr %10, align 4, !tbaa !10
  call void @_ZNK11mpn_manager8trace_nlEPKjj(ptr noundef nonnull align 1 dereferenceable(1) %15, ptr noundef %66, i32 noundef %67)
  %68 = load i32, ptr %11, align 4, !tbaa !10
  call void @llvm.lifetime.end.p0(i64 4, ptr %12) #3
  call void @llvm.lifetime.end.p0(i64 4, ptr %11) #3
  ret i32 %68
}