; Function Attrs: mustprogress nofree norecurse nosync nounwind willreturn memory(argmem: read) uwtable
define hidden noundef range(i32 -1, 2) i32 @_ZNK11mpn_manager7compareEPKjjS1_j(ptr noundef nonnull readnone align 1 captures(none) dereferenceable(1) %0, ptr noundef readonly captures(none) %1, i32 noundef %2, ptr noundef readonly captures(none) %3, i32 noundef %4) local_unnamed_addr #3 align 2 {
  %6 = or i32 %2, %4
  %.not = icmp eq i32 %6, 0
  br i1 %.not, label %._crit_edge, label %.lr.ph.preheader

.lr.ph.preheader:                                 ; preds = %5
  %7 = zext i32 %4 to i64
  %8 = zext i32 %2 to i64
  %umax = tail call i64 @llvm.umax.i64(i64 %7, i64 %8)
  br label %.lr.ph

.lr.ph:                                           ; preds = %.lr.ph.preheader, %18
  %indvars.iv = phi i64 [ %umax, %.lr.ph.preheader ], [ %9, %18 ]
  %9 = add nsw i64 %indvars.iv, -1
  %.wide28 = icmp ult i64 %9, %8
  br i1 %.wide28, label %10, label %13

10:                                               ; preds = %.lr.ph
  %11 = getelementptr inbounds nuw i32, ptr %1, i64 %9
  %12 = load i32, ptr %11, align 4, !tbaa !3
  br label %13

13:                                               ; preds = %.lr.ph, %10
  %14 = phi i32 [ %12, %10 ], [ 0, %.lr.ph ]
  %.wide = icmp ult i64 %9, %7
  br i1 %.wide, label %15, label %18

15:                                               ; preds = %13
  %16 = getelementptr inbounds nuw i32, ptr %3, i64 %9
  %17 = load i32, ptr %16, align 4, !tbaa !3
  br label %18

18:                                               ; preds = %13, %15
  %19 = phi i32 [ %17, %15 ], [ 0, %13 ]
  %.wide29 = icmp ne i64 %9, 0
  %20 = icmp eq i32 %14, %19
  %21 = and i1 %.wide29, %20
  br i1 %21, label %.lr.ph, label %._crit_edge.loopexit, !llvm.loop !7

._crit_edge.loopexit:                             ; preds = %18
  %.1 = tail call i32 @llvm.ucmp.i32.i32(i32 %14, i32 %19)
  br label %._crit_edge

._crit_edge:                                      ; preds = %._crit_edge.loopexit, %5
  %.0.lcssa = phi i32 [ 0, %5 ], [ %.1, %._crit_edge.loopexit ]
  ret i32 %.0.lcssa
}